(lp0
S"S'http://thehackerspost.com/2014/09/massachusetts-institute-technologymit-hacked-sahoo.html'\np0\n."
p1
aS"S'http://thehackerspost.com/2014/09/pakistan-meteorological-department-website-hacked-xerxes.html'\np0\n."
p2
aS"S'http://thehackerspost.com/2014/09/pakistan-ministry-interiorwww-interior-gov-pk-gets-hacked-anonymous-hackers-protests-fake-elections.html'\np0\n."
p3
aS"S'http://thehackerspost.com/2015/03/iranian-cyber-police-arrested-240-mw-shut-down-about-900-websites.html'\np0\n."
p4
aS"S'http://thehackerspost.com/2014/09/popular-hacking-forum-alboraaq-hacked-eg-r1z.html'\np0\n."
p5
aS"S'http://thehackerspost.com/2014/09/federal-health-insurance-website-healthcare-gov-hacked.html'\np0\n."
p6
aS"S'http://thehackerspost.com/2014/08/stanford-university-website-hacked-indian-hacker-sahoo.html'\np0\n."
p7
aS"S'http://thehackerspost.com/2014/09/bangladeshi-air-force-recruitment-site-hacked-team-pak-cyber-experts-pak-haxors-crew.html'\np0\n."
p8
aS"S'http://thehackerspost.com/2014/09/icloud-hacking-using-ibrute-hacker-leaks-nude-pictures-several-celebrities.html'\np0\n."
p9
aS"S'http://thehackerspost.com/2014/10/indian-leading-marketplace-snapdeal-blog-hacked-pakistan-haxors-cre.html'\np0\n."
p10
a.